target datalayout = "e-m:e-p270:32:32-p271:32:32-p272:64:64-i64:64-i128:128-f80:128-n8:16:32:64-S128"
target triple = "x86_64-pc-linux-gnu"

; Function Attrs: nounwind uwtable
define hidden void @aom_vertical_band_5_4_scale_c(ptr noundef %0, i32 noundef %1, ptr noundef %2, i32 noundef %3, i32 noundef %4) #0 {
  %6 = alloca ptr, align 8
  %7 = alloca i32, align 4
  %8 = alloca ptr, align 8
  %9 = alloca i32, align 4
  %10 = alloca i32, align 4
  %11 = alloca ptr, align 8
  %12 = alloca i32, align 4
  %13 = alloca i32, align 4
  %14 = alloca i32, align 4
  %15 = alloca i32, align 4
  %16 = alloca i32, align 4
  store ptr %0, ptr %6, align 8
  store i32 %1, ptr %7, align 4
  store ptr %2, ptr %8, align 8
  store i32 %3, ptr %9, align 4
  store i32 %4, ptr %10, align 4
  %17 = load ptr, ptr %8, align 8
  %18 = load i32, ptr %10, align 4
  %19 = zext i32 %18 to i64
  %20 = getelementptr inbounds i8, ptr %17, i64 %19
  store ptr %20, ptr %11, align 8
  br label %21

21:                                               ; preds = %25, %5
  %22 = load ptr, ptr %8, align 8
  %23 = load ptr, ptr %11, align 8
  %24 = icmp ult ptr %22, %23
  br i1 %24, label %25, label %111

25:                                               ; preds = %21
  %26 = load ptr, ptr %6, align 8
  %27 = load i32, ptr %7, align 4
  %28 = mul nsw i32 0, %27
  %29 = sext i32 %28 to i64
  %30 = getelementptr inbounds i8, ptr %26, i64 %29
  %31 = load i8, ptr %30, align 1
  %32 = zext i8 %31 to i32
  store i32 %32, ptr %12, align 4
  %33 = load ptr, ptr %6, align 8
  %34 = load i32, ptr %7, align 4
  %35 = mul nsw i32 1, %34
  %36 = sext i32 %35 to i64
  %37 = getelementptr inbounds i8, ptr %33, i64 %36
  %38 = load i8, ptr %37, align 1
  %39 = zext i8 %38 to i32
  store i32 %39, ptr %13, align 4
  %40 = load ptr, ptr %6, align 8
  %41 = load i32, ptr %7, align 4
  %42 = mul nsw i32 2, %41
  %43 = sext i32 %42 to i64
  %44 = getelementptr inbounds i8, ptr %40, i64 %43
  %45 = load i8, ptr %44, align 1
  %46 = zext i8 %45 to i32
  store i32 %46, ptr %14, align 4
  %47 = load ptr, ptr %6, align 8
  %48 = load i32, ptr %7, align 4
  %49 = mul nsw i32 3, %48
  %50 = sext i32 %49 to i64
  %51 = getelementptr inbounds i8, ptr %47, i64 %50
  %52 = load i8, ptr %51, align 1
  %53 = zext i8 %52 to i32
  store i32 %53, ptr %15, align 4
  %54 = load ptr, ptr %6, align 8
  %55 = load i32, ptr %7, align 4
  %56 = mul nsw i32 4, %55
  %57 = sext i32 %56 to i64
  %58 = getelementptr inbounds i8, ptr %54, i64 %57
  %59 = load i8, ptr %58, align 1
  %60 = zext i8 %59 to i32
  store i32 %60, ptr %16, align 4
  %61 = load i32, ptr %12, align 4
  %62 = trunc i32 %61 to i8
  %63 = load ptr, ptr %8, align 8
  %64 = load i32, ptr %9, align 4
  %65 = mul nsw i32 0, %64
  %66 = sext i32 %65 to i64
  %67 = getelementptr inbounds i8, ptr %63, i64 %66
  store i8 %62, ptr %67, align 1
  %68 = load i32, ptr %13, align 4
  %69 = mul i32 %68, 192
  %70 = load i32, ptr %14, align 4
  %71 = mul i32 %70, 64
  %72 = add i32 %69, %71
  %73 = add i32 %72, 128
  %74 = lshr i32 %73, 8
  %75 = trunc i32 %74 to i8
  %76 = load ptr, ptr %8, align 8
  %77 = load i32, ptr %9, align 4
  %78 = mul nsw i32 1, %77
  %79 = sext i32 %78 to i64
  %80 = getelementptr inbounds i8, ptr %76, i64 %79
  store i8 %75, ptr %80, align 1
  %81 = load i32, ptr %14, align 4
  %82 = mul i32 %81, 128
  %83 = load i32, ptr %15, align 4
  %84 = mul i32 %83, 128
  %85 = add i32 %82, %84
  %86 = add i32 %85, 128
  %87 = lshr i32 %86, 8
  %88 = trunc i32 %87 to i8
  %89 = load ptr, ptr %8, align 8
  %90 = load i32, ptr %9, align 4
  %91 = mul nsw i32 2, %90
  %92 = sext i32 %91 to i64
  %93 = getelementptr inbounds i8, ptr %89, i64 %92
  store i8 %88, ptr %93, align 1
  %94 = load i32, ptr %15, align 4
  %95 = mul i32 %94, 64
  %96 = load i32, ptr %16, align 4
  %97 = mul i32 %96, 192
  %98 = add i32 %95, %97
  %99 = add i32 %98, 128
  %100 = lshr i32 %99, 8
  %101 = trunc i32 %100 to i8
  %102 = load ptr, ptr %8, align 8
  %103 = load i32, ptr %9, align 4
  %104 = mul nsw i32 3, %103
  %105 = sext i32 %104 to i64
  %106 = getelementptr inbounds i8, ptr %102, i64 %105
  store i8 %101, ptr %106, align 1
  %107 = load ptr, ptr %6, align 8
  %108 = getelementptr inbounds i8, ptr %107, i32 1
  store ptr %108, ptr %6, align 8
  %109 = load ptr, ptr %8, align 8
  %110 = getelementptr inbounds i8, ptr %109, i32 1
  store ptr %110, ptr %8, align 8
  br label %21, !llvm.loop !6

111:                                              ; preds = %21
  ret void
}