; Function Attrs: nofree norecurse nosync nounwind memory(argmem: readwrite) uwtable
define hidden void @aom_vertical_band_5_4_scale_c(ptr noundef readonly captures(none) %0, i32 noundef %1, ptr noundef writeonly %2, i32 noundef %3, i32 noundef %4) local_unnamed_addr #0 {
  %6 = zext i32 %4 to i64
  %7 = getelementptr inbounds nuw i8, ptr %2, i64 %6
  %.not = icmp eq i32 %4, 0
  br i1 %.not, label %._crit_edge, label %.lr.ph

.lr.ph:                                           ; preds = %5
  %8 = sext i32 %1 to i64
  %9 = shl nsw i32 %1, 1
  %10 = sext i32 %9 to i64
  %11 = mul nsw i32 %1, 3
  %12 = sext i32 %11 to i64
  %13 = shl nsw i32 %1, 2
  %14 = sext i32 %13 to i64
  %15 = sext i32 %3 to i64
  %16 = shl nsw i32 %3, 1
  %17 = sext i32 %16 to i64
  %18 = mul nsw i32 %3, 3
  %19 = sext i32 %18 to i64
  br label %20

20:                                               ; preds = %.lr.ph, %20
  %.032 = phi ptr [ %0, %.lr.ph ], [ %54, %20 ]
  %.03031 = phi ptr [ %2, %.lr.ph ], [ %55, %20 ]
  %21 = load i8, ptr %.032, align 1
  %22 = getelementptr inbounds i8, ptr %.032, i64 %8
  %23 = load i8, ptr %22, align 1
  %24 = zext i8 %23 to i32
  %25 = getelementptr inbounds i8, ptr %.032, i64 %10
  %26 = load i8, ptr %25, align 1
  %27 = zext i8 %26 to i32
  %28 = getelementptr inbounds i8, ptr %.032, i64 %12
  %29 = load i8, ptr %28, align 1
  %30 = zext i8 %29 to i32
  %31 = getelementptr inbounds i8, ptr %.032, i64 %14
  %32 = load i8, ptr %31, align 1
  %33 = zext i8 %32 to i32
  store i8 %21, ptr %.03031, align 1
  %34 = mul nuw nsw i32 %24, 192
  %35 = shl nuw nsw i32 %27, 6
  %36 = add nuw nsw i32 %34, 128
  %37 = add nuw nsw i32 %36, %35
  %38 = lshr i32 %37, 8
  %39 = trunc nuw i32 %38 to i8
  %40 = getelementptr inbounds i8, ptr %.03031, i64 %15
  store i8 %39, ptr %40, align 1
  %41 = add nuw nsw i32 %30, %27
  %42 = shl nuw nsw i32 %41, 7
  %43 = add nuw nsw i32 %42, 128
  %44 = lshr i32 %43, 8
  %45 = trunc nuw i32 %44 to i8
  %46 = getelementptr inbounds i8, ptr %.03031, i64 %17
  store i8 %45, ptr %46, align 1
  %47 = shl nuw nsw i32 %30, 6
  %48 = mul nuw nsw i32 %33, 192
  %49 = add nuw nsw i32 %47, 128
  %50 = add nuw nsw i32 %49, %48
  %51 = lshr i32 %50, 8
  %52 = trunc nuw i32 %51 to i8
  %53 = getelementptr inbounds i8, ptr %.03031, i64 %19
  store i8 %52, ptr %53, align 1
  %54 = getelementptr inbounds nuw i8, ptr %.032, i64 1
  %55 = getelementptr inbounds nuw i8, ptr %.03031, i64 1
  %56 = icmp ult ptr %55, %7
  br i1 %56, label %20, label %._crit_edge, !llvm.loop !6

._crit_edge:                                      ; preds = %20, %5
  ret void
}